; Function Attrs: cold nounwind optsize uwtable
define internal range(i32 -2147483648, 1) i32 @mpeg_decode_init(ptr noundef %0) #0 {
  %2 = getelementptr inbounds nuw i8, ptr %0, i64 32
  %3 = load ptr, ptr %2, align 8, !tbaa !4
  %4 = getelementptr inbounds nuw i8, ptr %3, i64 496
  store i32 0, ptr %4, align 8, !tbaa !27
  %5 = getelementptr inbounds nuw i8, ptr %0, i64 28
  %6 = load i32, ptr %5, align 4, !tbaa !50
  switch i32 %6, label %7 [
    i32 844251990, label %10
    i32 808539970, label %10
  ]

7:                                                ; preds = %1
  %8 = getelementptr inbounds nuw i8, ptr %0, i64 124
  store i32 0, ptr %8, align 4, !tbaa !51
  %9 = getelementptr inbounds nuw i8, ptr %0, i64 120
  store i32 0, ptr %9, align 8, !tbaa !52
  br label %10

10:                                               ; preds = %1, %1, %7
  %11 = tail call i32 @ff_mpv_decode_init(ptr noundef nonnull %3, ptr noundef nonnull %0) #12
  %12 = icmp slt i32 %11, 0
  br i1 %12, label %16, label %13

13:                                               ; preds = %10
  tail call void @ff_mpeg12_init_vlcs() #12
  %14 = getelementptr inbounds nuw i8, ptr %3, i64 4252
  store i32 1, ptr %14, align 4, !tbaa !53
  %15 = getelementptr inbounds nuw i8, ptr %0, i64 156
  store i32 1, ptr %15, align 4, !tbaa !54
  br label %16

16:                                               ; preds = %10, %13
  %.0 = phi i32 [ 0, %13 ], [ %11, %10 ]
  ret i32 %.0
}